; Function Attrs: mustprogress nounwind uwtable
define internal fastcc void @"_ZSt22__stable_sort_adaptiveIPPN4llvm17MachineBasicBlockES3_lN9__gnu_cxx5__ops15_Iter_comp_iterIZNK12_GLOBAL__N_114MachineSinking22GetAllSortedSuccessorsERNS0_12MachineInstrES2_RNS0_13SmallDenseMapIS2_NS0_11SmallVectorIS2_Lj4EEELj4ENS0_12DenseMapInfoIS2_vEENS0_6detail12DenseMapPairIS2_SD_EEEEE3$_0EEEvT_SN_T0_T1_T2_"(ptr noundef %0, ptr noundef %1, ptr noundef %2, i64 noundef %3, ptr %4) unnamed_addr #0 {
  %6 = ptrtoint ptr %1 to i64
  %7 = ptrtoint ptr %0 to i64
  %8 = sub i64 %6, %7
  %9 = ashr exact i64 %8, 3
  %10 = add nsw i64 %9, 1
  %11 = sdiv i64 %10, 2
  %12 = getelementptr inbounds ptr, ptr %0, i64 %11
  %13 = icmp sgt i64 %11, %3
  br i1 %13, label %14, label %15

14:                                               ; preds = %5
  tail call fastcc void @"_ZSt22__stable_sort_adaptiveIPPN4llvm17MachineBasicBlockES3_lN9__gnu_cxx5__ops15_Iter_comp_iterIZNK12_GLOBAL__N_114MachineSinking22GetAllSortedSuccessorsERNS0_12MachineInstrES2_RNS0_13SmallDenseMapIS2_NS0_11SmallVectorIS2_Lj4EEELj4ENS0_12DenseMapInfoIS2_vEENS0_6detail12DenseMapPairIS2_SD_EEEEE3$_0EEEvT_SN_T0_T1_T2_"(ptr noundef %0, ptr noundef %12, ptr noundef %2, i64 noundef %3, ptr %4)
  tail call fastcc void @"_ZSt22__stable_sort_adaptiveIPPN4llvm17MachineBasicBlockES3_lN9__gnu_cxx5__ops15_Iter_comp_iterIZNK12_GLOBAL__N_114MachineSinking22GetAllSortedSuccessorsERNS0_12MachineInstrES2_RNS0_13SmallDenseMapIS2_NS0_11SmallVectorIS2_Lj4EEELj4ENS0_12DenseMapInfoIS2_vEENS0_6detail12DenseMapPairIS2_SD_EEEEE3$_0EEEvT_SN_T0_T1_T2_"(ptr noundef %12, ptr noundef %1, ptr noundef %2, i64 noundef %3, ptr %4)
  br label %16

15:                                               ; preds = %5
  tail call fastcc void @"_ZSt24__merge_sort_with_bufferIPPN4llvm17MachineBasicBlockES3_N9__gnu_cxx5__ops15_Iter_comp_iterIZNK12_GLOBAL__N_114MachineSinking22GetAllSortedSuccessorsERNS0_12MachineInstrES2_RNS0_13SmallDenseMapIS2_NS0_11SmallVectorIS2_Lj4EEELj4ENS0_12DenseMapInfoIS2_vEENS0_6detail12DenseMapPairIS2_SD_EEEEE3$_0EEEvT_SN_T0_T1_"(ptr noundef %0, ptr noundef %12, ptr noundef %2, ptr %4)
  tail call fastcc void @"_ZSt24__merge_sort_with_bufferIPPN4llvm17MachineBasicBlockES3_N9__gnu_cxx5__ops15_Iter_comp_iterIZNK12_GLOBAL__N_114MachineSinking22GetAllSortedSuccessorsERNS0_12MachineInstrES2_RNS0_13SmallDenseMapIS2_NS0_11SmallVectorIS2_Lj4EEELj4ENS0_12DenseMapInfoIS2_vEENS0_6detail12DenseMapPairIS2_SD_EEEEE3$_0EEEvT_SN_T0_T1_"(ptr noundef %12, ptr noundef %1, ptr noundef %2, ptr %4)
  br label %16

16:                                               ; preds = %15, %14
  %17 = ptrtoint ptr %12 to i64
  %18 = sub i64 %6, %17
  %19 = ashr exact i64 %18, 3
  %20 = ptrtoint ptr %4 to i64
  tail call fastcc void @"_ZSt16__merge_adaptiveIPPN4llvm17MachineBasicBlockElS3_N9__gnu_cxx5__ops15_Iter_comp_iterIZNK12_GLOBAL__N_114MachineSinking22GetAllSortedSuccessorsERNS0_12MachineInstrES2_RNS0_13SmallDenseMapIS2_NS0_11SmallVectorIS2_Lj4EEELj4ENS0_12DenseMapInfoIS2_vEENS0_6detail12DenseMapPairIS2_SD_EEEEE3$_0EEEvT_SN_SN_T0_SO_T1_SO_T2_"(ptr noundef %0, ptr noundef %12, ptr noundef %1, i64 noundef %11, i64 noundef %19, ptr noundef %2, i64 noundef %3, i64 %20)
  ret void
}